; Function Attrs: mustprogress nounwind uwtable
define hidden void @_ZN19OpenColorIO_v2_5dev12STUDIOCONFIG8RegisterERNS_25BuiltinConfigRegistryImplE(ptr noundef nonnull align 8 dereferenceable(32) %0) local_unnamed_addr #0 personality ptr @__gxx_personality_v0 {
  invoke void @_ZN19OpenColorIO_v2_5dev25BuiltinConfigRegistryImpl10addBuiltinEPKcS2_S2_b(ptr noundef nonnull align 8 dereferenceable(32) %0, ptr noundef nonnull @.str, ptr noundef nonnull @.str.1, ptr noundef nonnull @_ZL36STUDIO_CONFIG_V100_ACES_V13_OCIO_V21, i1 noundef zeroext false)
          to label %2 unwind label %5

2:                                                ; preds = %1
  invoke void @_ZN19OpenColorIO_v2_5dev25BuiltinConfigRegistryImpl10addBuiltinEPKcS2_S2_b(ptr noundef nonnull align 8 dereferenceable(32) %0, ptr noundef nonnull @.str.2, ptr noundef nonnull @.str.3, ptr noundef nonnull @_ZL36STUDIO_CONFIG_V210_ACES_V13_OCIO_V23, i1 noundef zeroext false)
          to label %3 unwind label %5

3:                                                ; preds = %2
  invoke void @_ZN19OpenColorIO_v2_5dev25BuiltinConfigRegistryImpl10addBuiltinEPKcS2_S2_b(ptr noundef nonnull align 8 dereferenceable(32) %0, ptr noundef nonnull @.str.4, ptr noundef nonnull @.str.5, ptr noundef nonnull @_ZL36STUDIO_CONFIG_V220_ACES_V13_OCIO_V24, i1 noundef zeroext true)
          to label %4 unwind label %5

4:                                                ; preds = %3
  ret void

5:                                                ; preds = %3, %2, %1
  %6 = landingpad { ptr, i32 }
          catch ptr null
  %7 = extractvalue { ptr, i32 } %6, 0
  tail call void @__clang_call_terminate(ptr %7) #4
  unreachable
}